CCS PCM C Compiler, Version 3.148, 15174

               Filename: c:\documents and settings\guillermo\escritorio\pacho\pacho.LST

               ROM used: 593 (14%)
                         Largest free fragment is 2048
               RAM used: 9 (5%) at main() level
                         10 (5%) worst case
               Stack:    2 locations

*
0000:  MOVLW  00
0001:  MOVWF  0A
0002:  GOTO   21F
0003:  NOP
....................  #if defined(__PCM__)  
.................... #include <16f873A.h> 
....................  //////// Standard Header file for the PIC16F873A device ////////////////  
.................... #device PIC16F873A  
.................... #list  
....................  
.................... #fuses XT,NOWDT,NOPROTECT  
.................... #device *=16 ADC=10  
.................... #use delay(clock=4000000)  
*
0039:  MOVLW  29
003A:  MOVWF  04
003B:  BCF    03.7
003C:  MOVF   00,W
003D:  BTFSC  03.2
003E:  GOTO   04E
003F:  MOVLW  01
0040:  MOVWF  21
0041:  CLRF   20
0042:  DECFSZ 20,F
0043:  GOTO   042
0044:  DECFSZ 21,F
0045:  GOTO   041
0046:  MOVLW  4A
0047:  MOVWF  20
0048:  DECFSZ 20,F
0049:  GOTO   048
004A:  NOP
004B:  NOP
004C:  DECFSZ 00,F
004D:  GOTO   03F
004E:  RETLW  00
.................... #endif  
....................   
.................... int time=50;  
.................... int16 lectura=0;  
....................   
.................... void inicializar() {  
....................    output_low(PIN_B4);  
*
0004:  BSF    03.5
0005:  BCF    06.4
0006:  BCF    03.5
0007:  BCF    06.4
....................    output_low(PIN_B5);  
0008:  BSF    03.5
0009:  BCF    06.5
000A:  BCF    03.5
000B:  BCF    06.5
....................    output_low(PIN_B6);  
000C:  BSF    03.5
000D:  BCF    06.6
000E:  BCF    03.5
000F:  BCF    06.6
....................    output_low(PIN_B7);  
0010:  BSF    03.5
0011:  BCF    06.7
0012:  BCF    03.5
0013:  BCF    06.7
....................     
....................    setup_adc_ports(RA0_ANALOG);           //puerto A0 como entrada analoga  
0014:  MOVLW  8E
0015:  BSF    03.5
0016:  MOVWF  1F
....................    setup_adc(adc_clock_internal);         //configura el clk interno para el muestreo analogo  
0017:  BCF    03.5
0018:  MOVF   1F,W
0019:  ANDLW  38
001A:  IORLW  C1
001B:  MOVWF  1F
....................    set_adc_channel( 0 );                  //activa el canal a0  
001C:  MOVLW  00
001D:  MOVWF  21
001E:  MOVF   1F,W
001F:  ANDLW  C7
0020:  IORWF  21,W
0021:  MOVWF  1F
....................    delay_us(30);                          //retardo de 30 micro segundos  
0022:  MOVLW  09
0023:  MOVWF  20
0024:  DECFSZ 20,F
0025:  GOTO   024
0026:  NOP
0027:  NOP
0028:  BCF    0A.3
0029:  GOTO   237 (RETURN)
....................   
.................... }  
....................   
.................... void giro_derecha100() {  
....................    output_high(PIN_B4);  
*
004F:  BSF    03.5
0050:  BCF    06.4
0051:  BCF    03.5
0052:  BSF    06.4
....................    output_low(PIN_B5);  
0053:  BSF    03.5
0054:  BCF    06.5
0055:  BCF    03.5
0056:  BCF    06.5
....................    output_low(PIN_B6);  
0057:  BSF    03.5
0058:  BCF    06.6
0059:  BCF    03.5
005A:  BCF    06.6
....................    output_low(PIN_B7);  
005B:  BSF    03.5
005C:  BCF    06.7
005D:  BCF    03.5
005E:  BCF    06.7
....................    delay_ms( time );    
005F:  MOVF   25,W
0060:  MOVWF  29
0061:  CALL   039
....................      
....................    output_high(PIN_B4);  
0062:  BSF    03.5
0063:  BCF    06.4
0064:  BCF    03.5
0065:  BSF    06.4
....................    output_high(PIN_B5);  
0066:  BSF    03.5
0067:  BCF    06.5
0068:  BCF    03.5
0069:  BSF    06.5
....................    output_low(PIN_B6);   
006A:  BSF    03.5
006B:  BCF    06.6
006C:  BCF    03.5
006D:  BCF    06.6
....................    output_low(PIN_B7);   
006E:  BSF    03.5
006F:  BCF    06.7
0070:  BCF    03.5
0071:  BCF    06.7
....................    delay_ms( time );     
0072:  MOVF   25,W
0073:  MOVWF  29
0074:  CALL   039
....................      
....................    output_low(PIN_B4);   
0075:  BSF    03.5
0076:  BCF    06.4
0077:  BCF    03.5
0078:  BCF    06.4
....................    output_high(PIN_B5);  
0079:  BSF    03.5
007A:  BCF    06.5
007B:  BCF    03.5
007C:  BSF    06.5
....................    output_low(PIN_B6);   
007D:  BSF    03.5
007E:  BCF    06.6
007F:  BCF    03.5
0080:  BCF    06.6
....................    output_low(PIN_B7);   
0081:  BSF    03.5
0082:  BCF    06.7
0083:  BCF    03.5
0084:  BCF    06.7
....................    delay_ms( time );     
0085:  MOVF   25,W
0086:  MOVWF  29
0087:  CALL   039
....................      
....................    output_low(PIN_B4);    
0088:  BSF    03.5
0089:  BCF    06.4
008A:  BCF    03.5
008B:  BCF    06.4
....................    output_high(PIN_B5);   
008C:  BSF    03.5
008D:  BCF    06.5
008E:  BCF    03.5
008F:  BSF    06.5
....................    output_high(PIN_B6);   
0090:  BSF    03.5
0091:  BCF    06.6
0092:  BCF    03.5
0093:  BSF    06.6
....................    output_low(PIN_B7);    
0094:  BSF    03.5
0095:  BCF    06.7
0096:  BCF    03.5
0097:  BCF    06.7
....................    delay_ms( time );      
0098:  MOVF   25,W
0099:  MOVWF  29
009A:  CALL   039
....................      
....................    output_low(PIN_B4);   
009B:  BSF    03.5
009C:  BCF    06.4
009D:  BCF    03.5
009E:  BCF    06.4
....................    output_low(PIN_B5);   
009F:  BSF    03.5
00A0:  BCF    06.5
00A1:  BCF    03.5
00A2:  BCF    06.5
....................    output_high(PIN_B6);  
00A3:  BSF    03.5
00A4:  BCF    06.6
00A5:  BCF    03.5
00A6:  BSF    06.6
....................    output_low(PIN_B7);   
00A7:  BSF    03.5
00A8:  BCF    06.7
00A9:  BCF    03.5
00AA:  BCF    06.7
....................    delay_ms( time );     
00AB:  MOVF   25,W
00AC:  MOVWF  29
00AD:  CALL   039
....................      
....................    output_low(PIN_B4);    
00AE:  BSF    03.5
00AF:  BCF    06.4
00B0:  BCF    03.5
00B1:  BCF    06.4
....................    output_low(PIN_B5);    
00B2:  BSF    03.5
00B3:  BCF    06.5
00B4:  BCF    03.5
00B5:  BCF    06.5
....................    output_high(PIN_B6);   
00B6:  BSF    03.5
00B7:  BCF    06.6
00B8:  BCF    03.5
00B9:  BSF    06.6
....................    output_high(PIN_B7);   
00BA:  BSF    03.5
00BB:  BCF    06.7
00BC:  BCF    03.5
00BD:  BSF    06.7
....................    delay_ms( time );      
00BE:  MOVF   25,W
00BF:  MOVWF  29
00C0:  CALL   039
....................      
....................    output_low(PIN_B4);    
00C1:  BSF    03.5
00C2:  BCF    06.4
00C3:  BCF    03.5
00C4:  BCF    06.4
....................    output_low(PIN_B5);    
00C5:  BSF    03.5
00C6:  BCF    06.5
00C7:  BCF    03.5
00C8:  BCF    06.5
....................    output_low(PIN_B6);    
00C9:  BSF    03.5
00CA:  BCF    06.6
00CB:  BCF    03.5
00CC:  BCF    06.6
....................    output_high(PIN_B7);   
00CD:  BSF    03.5
00CE:  BCF    06.7
00CF:  BCF    03.5
00D0:  BSF    06.7
....................    delay_ms( time );      
00D1:  MOVF   25,W
00D2:  MOVWF  29
00D3:  CALL   039
....................      
....................    output_high(PIN_B4);    
00D4:  BSF    03.5
00D5:  BCF    06.4
00D6:  BCF    03.5
00D7:  BSF    06.4
....................    output_low(PIN_B5);     
00D8:  BSF    03.5
00D9:  BCF    06.5
00DA:  BCF    03.5
00DB:  BCF    06.5
....................    output_low(PIN_B6);     
00DC:  BSF    03.5
00DD:  BCF    06.6
00DE:  BCF    03.5
00DF:  BCF    06.6
....................    output_high(PIN_B7);    
00E0:  BSF    03.5
00E1:  BCF    06.7
00E2:  BCF    03.5
00E3:  BSF    06.7
....................    delay_ms( time );   
00E4:  MOVF   25,W
00E5:  MOVWF  29
00E6:  CALL   039
00E7:  BCF    0A.3
00E8:  GOTO   23D (RETURN)
.................... }  
....................   
.................... void giro_derecha75() {  
....................    output_high(PIN_B4);  
....................    output_low(PIN_B5);  
....................    output_low(PIN_B6);  
....................    output_low(PIN_B7);  
....................    delay_ms( time );    
....................      
....................    output_high(PIN_B4);  
....................    output_high(PIN_B5);  
....................    output_low(PIN_B6);   
....................    output_low(PIN_B7);   
....................    delay_ms( time );     
....................      
....................    output_low(PIN_B4);   
....................    output_high(PIN_B5);  
....................    output_low(PIN_B6);   
....................    output_low(PIN_B7);   
....................    delay_ms( time );     
....................      
....................    output_low(PIN_B4);    
....................    output_high(PIN_B5);   
....................    output_high(PIN_B6);   
....................    output_low(PIN_B7);    
....................    delay_ms( time );      
....................      
....................    output_low(PIN_B4);   
....................    output_low(PIN_B5);   
....................    output_high(PIN_B6);  
....................    output_low(PIN_B7);   
....................    delay_ms( time );     
....................      
....................    output_low(PIN_B4);    
....................    output_low(PIN_B5);    
....................    output_high(PIN_B6);   
....................    output_high(PIN_B7);   
....................    delay_ms( time );     
.................... }  
....................   
.................... void giro_derecha50() {  
....................    output_high(PIN_B4);  
00E9:  BSF    03.5
00EA:  BCF    06.4
00EB:  BCF    03.5
00EC:  BSF    06.4
....................    output_low(PIN_B5);  
00ED:  BSF    03.5
00EE:  BCF    06.5
00EF:  BCF    03.5
00F0:  BCF    06.5
....................    output_low(PIN_B6);  
00F1:  BSF    03.5
00F2:  BCF    06.6
00F3:  BCF    03.5
00F4:  BCF    06.6
....................    output_low(PIN_B7);  
00F5:  BSF    03.5
00F6:  BCF    06.7
00F7:  BCF    03.5
00F8:  BCF    06.7
....................    delay_ms( time );    
00F9:  MOVF   25,W
00FA:  MOVWF  29
00FB:  CALL   039
....................      
....................    output_high(PIN_B4);  
00FC:  BSF    03.5
00FD:  BCF    06.4
00FE:  BCF    03.5
00FF:  BSF    06.4
....................    output_high(PIN_B5);  
0100:  BSF    03.5
0101:  BCF    06.5
0102:  BCF    03.5
0103:  BSF    06.5
....................    output_low(PIN_B6);   
0104:  BSF    03.5
0105:  BCF    06.6
0106:  BCF    03.5
0107:  BCF    06.6
....................    output_low(PIN_B7);   
0108:  BSF    03.5
0109:  BCF    06.7
010A:  BCF    03.5
010B:  BCF    06.7
....................    delay_ms( time );     
010C:  MOVF   25,W
010D:  MOVWF  29
010E:  CALL   039
....................      
....................    output_low(PIN_B4);   
010F:  BSF    03.5
0110:  BCF    06.4
0111:  BCF    03.5
0112:  BCF    06.4
....................    output_high(PIN_B5);  
0113:  BSF    03.5
0114:  BCF    06.5
0115:  BCF    03.5
0116:  BSF    06.5
....................    output_low(PIN_B6);   
0117:  BSF    03.5
0118:  BCF    06.6
0119:  BCF    03.5
011A:  BCF    06.6
....................    output_low(PIN_B7);   
011B:  BSF    03.5
011C:  BCF    06.7
011D:  BCF    03.5
011E:  BCF    06.7
....................    delay_ms( time );     
011F:  MOVF   25,W
0120:  MOVWF  29
0121:  CALL   039
....................      
....................    output_low(PIN_B4);    
0122:  BSF    03.5
0123:  BCF    06.4
0124:  BCF    03.5
0125:  BCF    06.4
....................    output_high(PIN_B5);   
0126:  BSF    03.5
0127:  BCF    06.5
0128:  BCF    03.5
0129:  BSF    06.5
....................    output_high(PIN_B6);   
012A:  BSF    03.5
012B:  BCF    06.6
012C:  BCF    03.5
012D:  BSF    06.6
....................    output_low(PIN_B7);    
012E:  BSF    03.5
012F:  BCF    06.7
0130:  BCF    03.5
0131:  BCF    06.7
....................    delay_ms( time );      
0132:  MOVF   25,W
0133:  MOVWF  29
0134:  CALL   039
0135:  BCF    0A.3
0136:  GOTO   243 (RETURN)
.................... }  
....................   
.................... void giro_derecha25() {  
....................    output_high(PIN_B4);  
....................    output_low(PIN_B5);  
....................    output_low(PIN_B6);  
....................    output_low(PIN_B7);  
....................    delay_ms( time );    
....................      
....................    output_high(PIN_B4);  
....................    output_high(PIN_B5);  
....................    output_low(PIN_B6);   
....................    output_low(PIN_B7);   
....................    delay_ms( time );     
.................... }  
....................   
.................... void giro_izquierda100() {  
....................    output_high(PIN_B4);    
*
0185:  BSF    03.5
0186:  BCF    06.4
0187:  BCF    03.5
0188:  BSF    06.4
....................    output_low(PIN_B5);     
0189:  BSF    03.5
018A:  BCF    06.5
018B:  BCF    03.5
018C:  BCF    06.5
....................    output_low(PIN_B6);     
018D:  BSF    03.5
018E:  BCF    06.6
018F:  BCF    03.5
0190:  BCF    06.6
....................    output_high(PIN_B7);    
0191:  BSF    03.5
0192:  BCF    06.7
0193:  BCF    03.5
0194:  BSF    06.7
....................    delay_ms( time );   
0195:  MOVF   25,W
0196:  MOVWF  29
0197:  CALL   039
....................      
....................    output_low(PIN_B4);    
0198:  BSF    03.5
0199:  BCF    06.4
019A:  BCF    03.5
019B:  BCF    06.4
....................    output_low(PIN_B5);    
019C:  BSF    03.5
019D:  BCF    06.5
019E:  BCF    03.5
019F:  BCF    06.5
....................    output_low(PIN_B6);    
01A0:  BSF    03.5
01A1:  BCF    06.6
01A2:  BCF    03.5
01A3:  BCF    06.6
....................    output_high(PIN_B7);   
01A4:  BSF    03.5
01A5:  BCF    06.7
01A6:  BCF    03.5
01A7:  BSF    06.7
....................    delay_ms( time );      
01A8:  MOVF   25,W
01A9:  MOVWF  29
01AA:  CALL   039
....................      
....................    output_low(PIN_B4);    
01AB:  BSF    03.5
01AC:  BCF    06.4
01AD:  BCF    03.5
01AE:  BCF    06.4
....................    output_low(PIN_B5);    
01AF:  BSF    03.5
01B0:  BCF    06.5
01B1:  BCF    03.5
01B2:  BCF    06.5
....................    output_high(PIN_B6);   
01B3:  BSF    03.5
01B4:  BCF    06.6
01B5:  BCF    03.5
01B6:  BSF    06.6
....................    output_high(PIN_B7);   
01B7:  BSF    03.5
01B8:  BCF    06.7
01B9:  BCF    03.5
01BA:  BSF    06.7
....................    delay_ms( time );      
01BB:  MOVF   25,W
01BC:  MOVWF  29
01BD:  CALL   039
....................      
....................    output_low(PIN_B4);   
01BE:  BSF    03.5
01BF:  BCF    06.4
01C0:  BCF    03.5
01C1:  BCF    06.4
....................    output_low(PIN_B5);   
01C2:  BSF    03.5
01C3:  BCF    06.5
01C4:  BCF    03.5
01C5:  BCF    06.5
....................    output_high(PIN_B6);  
01C6:  BSF    03.5
01C7:  BCF    06.6
01C8:  BCF    03.5
01C9:  BSF    06.6
....................    output_low(PIN_B7);   
01CA:  BSF    03.5
01CB:  BCF    06.7
01CC:  BCF    03.5
01CD:  BCF    06.7
....................    delay_ms( time );     
01CE:  MOVF   25,W
01CF:  MOVWF  29
01D0:  CALL   039
....................      
....................    output_low(PIN_B4);    
01D1:  BSF    03.5
01D2:  BCF    06.4
01D3:  BCF    03.5
01D4:  BCF    06.4
....................    output_high(PIN_B5);   
01D5:  BSF    03.5
01D6:  BCF    06.5
01D7:  BCF    03.5
01D8:  BSF    06.5
....................    output_high(PIN_B6);   
01D9:  BSF    03.5
01DA:  BCF    06.6
01DB:  BCF    03.5
01DC:  BSF    06.6
....................    output_low(PIN_B7);    
01DD:  BSF    03.5
01DE:  BCF    06.7
01DF:  BCF    03.5
01E0:  BCF    06.7
....................    delay_ms( time );      
01E1:  MOVF   25,W
01E2:  MOVWF  29
01E3:  CALL   039
....................      
....................    output_low(PIN_B4);   
01E4:  BSF    03.5
01E5:  BCF    06.4
01E6:  BCF    03.5
01E7:  BCF    06.4
....................    output_high(PIN_B5);  
01E8:  BSF    03.5
01E9:  BCF    06.5
01EA:  BCF    03.5
01EB:  BSF    06.5
....................    output_low(PIN_B6);   
01EC:  BSF    03.5
01ED:  BCF    06.6
01EE:  BCF    03.5
01EF:  BCF    06.6
....................    output_low(PIN_B7);   
01F0:  BSF    03.5
01F1:  BCF    06.7
01F2:  BCF    03.5
01F3:  BCF    06.7
....................    delay_ms( time );     
01F4:  MOVF   25,W
01F5:  MOVWF  29
01F6:  CALL   039
....................      
....................    output_high(PIN_B4);  
01F7:  BSF    03.5
01F8:  BCF    06.4
01F9:  BCF    03.5
01FA:  BSF    06.4
....................    output_high(PIN_B5);  
01FB:  BSF    03.5
01FC:  BCF    06.5
01FD:  BCF    03.5
01FE:  BSF    06.5
....................    output_low(PIN_B6);   
01FF:  BSF    03.5
0200:  BCF    06.6
0201:  BCF    03.5
0202:  BCF    06.6
....................    output_low(PIN_B7);   
0203:  BSF    03.5
0204:  BCF    06.7
0205:  BCF    03.5
0206:  BCF    06.7
....................    delay_ms( time );     
0207:  MOVF   25,W
0208:  MOVWF  29
0209:  CALL   039
....................      
....................    output_high(PIN_B4);  
020A:  BSF    03.5
020B:  BCF    06.4
020C:  BCF    03.5
020D:  BSF    06.4
....................    output_low(PIN_B5);  
020E:  BSF    03.5
020F:  BCF    06.5
0210:  BCF    03.5
0211:  BCF    06.5
....................    output_low(PIN_B6);  
0212:  BSF    03.5
0213:  BCF    06.6
0214:  BCF    03.5
0215:  BCF    06.6
....................    output_low(PIN_B7);  
0216:  BSF    03.5
0217:  BCF    06.7
0218:  BCF    03.5
0219:  BCF    06.7
....................    delay_ms( time );    
021A:  MOVF   25,W
021B:  MOVWF  29
021C:  CALL   039
021D:  BCF    0A.3
021E:  GOTO   24F (RETURN)
.................... }  
....................   
.................... void giro_izquierda75() {  
....................    output_high(PIN_B4);    
....................    output_low(PIN_B5);     
....................    output_low(PIN_B6);     
....................    output_high(PIN_B7);    
....................    delay_ms( time );   
....................      
....................    output_low(PIN_B4);    
....................    output_low(PIN_B5);    
....................    output_low(PIN_B6);    
....................    output_high(PIN_B7);   
....................    delay_ms( time );      
....................      
....................    output_low(PIN_B4);    
....................    output_low(PIN_B5);    
....................    output_high(PIN_B6);   
....................    output_high(PIN_B7);   
....................    delay_ms( time );      
....................      
....................    output_low(PIN_B4);   
....................    output_low(PIN_B5);   
....................    output_high(PIN_B6);  
....................    output_low(PIN_B7);   
....................    delay_ms( time );     
....................      
....................    output_low(PIN_B4);    
....................    output_high(PIN_B5);   
....................    output_high(PIN_B6);   
....................    output_low(PIN_B7);    
....................    delay_ms( time );      
....................      
....................    output_low(PIN_B4);   
....................    output_high(PIN_B5);  
....................    output_low(PIN_B6);   
....................    output_low(PIN_B7);   
....................    delay_ms( time );     
.................... }  
....................   
.................... void giro_izquierda50() {  
....................    output_high(PIN_B4);    
*
0137:  BSF    03.5
0138:  BCF    06.4
0139:  BCF    03.5
013A:  BSF    06.4
....................    output_low(PIN_B5);     
013B:  BSF    03.5
013C:  BCF    06.5
013D:  BCF    03.5
013E:  BCF    06.5
....................    output_low(PIN_B6);     
013F:  BSF    03.5
0140:  BCF    06.6
0141:  BCF    03.5
0142:  BCF    06.6
....................    output_high(PIN_B7);    
0143:  BSF    03.5
0144:  BCF    06.7
0145:  BCF    03.5
0146:  BSF    06.7
....................    delay_ms( time );   
0147:  MOVF   25,W
0148:  MOVWF  29
0149:  CALL   039
....................      
....................    output_low(PIN_B4);    
014A:  BSF    03.5
014B:  BCF    06.4
014C:  BCF    03.5
014D:  BCF    06.4
....................    output_low(PIN_B5);    
014E:  BSF    03.5
014F:  BCF    06.5
0150:  BCF    03.5
0151:  BCF    06.5
....................    output_low(PIN_B6);    
0152:  BSF    03.5
0153:  BCF    06.6
0154:  BCF    03.5
0155:  BCF    06.6
....................    output_high(PIN_B7);   
0156:  BSF    03.5
0157:  BCF    06.7
0158:  BCF    03.5
0159:  BSF    06.7
....................    delay_ms( time );      
015A:  MOVF   25,W
015B:  MOVWF  29
015C:  CALL   039
....................      
....................    output_low(PIN_B4);    
015D:  BSF    03.5
015E:  BCF    06.4
015F:  BCF    03.5
0160:  BCF    06.4
....................    output_low(PIN_B5);    
0161:  BSF    03.5
0162:  BCF    06.5
0163:  BCF    03.5
0164:  BCF    06.5
....................    output_high(PIN_B6);   
0165:  BSF    03.5
0166:  BCF    06.6
0167:  BCF    03.5
0168:  BSF    06.6
....................    output_high(PIN_B7);   
0169:  BSF    03.5
016A:  BCF    06.7
016B:  BCF    03.5
016C:  BSF    06.7
....................    delay_ms( time );      
016D:  MOVF   25,W
016E:  MOVWF  29
016F:  CALL   039
....................      
....................    output_low(PIN_B4);   
0170:  BSF    03.5
0171:  BCF    06.4
0172:  BCF    03.5
0173:  BCF    06.4
....................    output_low(PIN_B5);   
0174:  BSF    03.5
0175:  BCF    06.5
0176:  BCF    03.5
0177:  BCF    06.5
....................    output_high(PIN_B6);  
0178:  BSF    03.5
0179:  BCF    06.6
017A:  BCF    03.5
017B:  BSF    06.6
....................    output_low(PIN_B7);   
017C:  BSF    03.5
017D:  BCF    06.7
017E:  BCF    03.5
017F:  BCF    06.7
....................    delay_ms( time );     
0180:  MOVF   25,W
0181:  MOVWF  29
0182:  CALL   039
0183:  BCF    0A.3
0184:  GOTO   249 (RETURN)
.................... }  
....................   
.................... void giro_izquierda25() {  
....................    output_high(PIN_B4);    
....................    output_low(PIN_B5);     
....................    output_low(PIN_B6);     
....................    output_high(PIN_B7);    
....................    delay_ms( time );   
....................      
....................    output_low(PIN_B4);    
....................    output_low(PIN_B5);    
....................    output_low(PIN_B6);    
....................    output_high(PIN_B7);   
....................    delay_ms( time );      
.................... }  
....................   
.................... void leer() {  
....................    lectura=read_adc();  
*
002A:  BSF    1F.2
002B:  BTFSC  1F.2
002C:  GOTO   02B
002D:  BSF    03.5
002E:  MOVF   1E,W
002F:  BCF    03.5
0030:  MOVWF  26
0031:  MOVF   1E,W
0032:  MOVWF  27
....................    delay_us(40);  
0033:  MOVLW  0D
0034:  MOVWF  20
0035:  DECFSZ 20,F
0036:  GOTO   035
0037:  BCF    0A.3
0038:  GOTO   238 (RETURN)
.................... }  
....................   
....................   
.................... main() {  
*
021F:  CLRF   04
0220:  BCF    03.7
0221:  MOVLW  1F
0222:  ANDWF  03,F
0223:  MOVLW  07
0224:  BSF    03.5
0225:  MOVWF  1F
0226:  BCF    03.5
0227:  MOVWF  1F
0228:  MOVLW  32
0229:  MOVWF  25
022A:  CLRF   26
022B:  CLRF   27
022C:  MOVLW  FF
022D:  MOVWF  28
.................... /*  
.................... Vista frontal, motor detras de la barra  
....................   
.................... |------|------|------|------|------|------|------|------|  
.................... 0     128    256    384    512    640    768    896   1024  
....................   
.................... */  
....................   
....................    SET_TRIS_A( 0xFF );  
022E:  MOVLW  FF
022F:  BSF    03.5
0230:  MOVWF  05
....................    SET_TRIS_B( 0x00 );  
0231:  MOVLW  00
0232:  MOVWF  06
....................    SET_TRIS_C( 0x00 );  
0233:  MOVWF  07
0234:  BCF    03.5
0235:  MOVWF  28
....................   
....................    inicializar();  
0236:  GOTO   004
....................      
....................    while(true) {  
....................       leer();  
0237:  GOTO   02A
....................         
.................... /*        
....................       if(lectura < 128) {  
....................          giro_derecha100();  
....................       } else if(lectura < 256) {  
....................          giro_derecha75();  
....................       } else if(lectura < 384) {  
....................          giro_derecha50();  
....................       } else if(lectura < 512) {  
....................          giro_derecha25();  
....................       } else if(lectura < 640) {  
....................          giro_izquierda25();  
....................       } else if(lectura < 768) {  
....................          giro_izquierda50();  
....................       } else if(lectura < 896) {  
....................          giro_izquierda75();  
....................       } else if(lectura < 1024) {  
....................          giro_izquierda100();  
....................       }        
.................... */  
....................       if(lectura < 256) {  
0238:  MOVF   27,W
0239:  SUBLW  00
023A:  BTFSS  03.0
023B:  GOTO   23E
....................          giro_derecha100();  
023C:  GOTO   04F
....................       } else if(lectura < 512) {  
023D:  GOTO   24F
023E:  MOVF   27,W
023F:  SUBLW  01
0240:  BTFSS  03.0
0241:  GOTO   244
....................          giro_derecha50();  
0242:  GOTO   0E9
....................       } else if(lectura < 768) {  
0243:  GOTO   24F
0244:  MOVF   27,W
0245:  SUBLW  02
0246:  BTFSS  03.0
0247:  GOTO   24A
....................          giro_izquierda50();  
0248:  GOTO   137
....................       } else if(lectura < 1024) {  
0249:  GOTO   24F
024A:  MOVF   27,W
024B:  SUBLW  03
024C:  BTFSS  03.0
024D:  GOTO   24F
....................          giro_izquierda100();  
024E:  GOTO   185
....................       }        
....................         
....................    }  
024F:  GOTO   237
.................... }  
....................  
0250:  SLEEP

Configuration Fuses:
   Word  1: 3FF9   XT NOWDT NOPUT NOPROTECT BROWNOUT LVP NOCPD WRT
